target datalayout = "e-m:e-p270:32:32-p271:32:32-p272:64:64-i64:64-i128:128-f80:128-n8:16:32:64-S128"
target triple = "x86_64-unknown-linux-gnu"

%"class.boost::intrusive_ptr" = type { ptr }
%"class.facebook::velox::Buffer" = type { ptr, ptr, ptr, i64, i64, %"struct.std::atomic", i8, [2 x i64] }
%"struct.std::atomic" = type { %"struct.std::__atomic_base" }
%"struct.std::__atomic_base" = type { i32 }
%"struct.facebook::velox::functions::(anonymous namespace)::FindFirstFunctionBase::StartIndexProcessor" = type { %"class.boost::intrusive_ptr", %"class.boost::intrusive_ptr" }

; Function Attrs: mustprogress uwtable
define linkonce_odr void @_ZN8facebook5velox6Buffer7releaseEv(ptr noundef nonnull align 8 dereferenceable(64) %this) #0 comdat align 2 {
entry:
  %this.addr.i = alloca ptr, align 8
  %__i.addr.i = alloca i32, align 4
  %__m.addr.i = alloca i32, align 4
  %.atomictmp.i = alloca i32, align 4
  %atomic-temp.i = alloca i32, align 4
  %this.addr = alloca ptr, align 8
  store ptr %this, ptr %this.addr, align 8
  %this1 = load ptr, ptr %this.addr, align 8
  %referenceCount_ = getelementptr inbounds %"class.facebook::velox::Buffer", ptr %this1, i32 0, i32 5
  store ptr %referenceCount_, ptr %this.addr.i, align 8
  store i32 1, ptr %__i.addr.i, align 4
  store i32 5, ptr %__m.addr.i, align 4
  %this1.i = load ptr, ptr %this.addr.i, align 8
  %0 = load i32, ptr %__m.addr.i, align 4
  %1 = load i32, ptr %__i.addr.i, align 4
  store i32 %1, ptr %.atomictmp.i, align 4
  switch i32 %0, label %monotonic.i [
    i32 1, label %acquire.i
    i32 2, label %acquire.i
    i32 3, label %release.i
    i32 4, label %acqrel.i
    i32 5, label %seqcst.i
  ]

monotonic.i:                                      ; preds = %entry
  %2 = load i32, ptr %.atomictmp.i, align 4
  %3 = atomicrmw sub ptr %this1.i, i32 %2 monotonic, align 4
  store i32 %3, ptr %atomic-temp.i, align 4
  br label %_ZNSt13__atomic_baseIiE9fetch_subEiSt12memory_order.exit

acquire.i:                                        ; preds = %entry, %entry
  %4 = load i32, ptr %.atomictmp.i, align 4
  %5 = atomicrmw sub ptr %this1.i, i32 %4 acquire, align 4
  store i32 %5, ptr %atomic-temp.i, align 4
  br label %_ZNSt13__atomic_baseIiE9fetch_subEiSt12memory_order.exit

release.i:                                        ; preds = %entry
  %6 = load i32, ptr %.atomictmp.i, align 4
  %7 = atomicrmw sub ptr %this1.i, i32 %6 release, align 4
  store i32 %7, ptr %atomic-temp.i, align 4
  br label %_ZNSt13__atomic_baseIiE9fetch_subEiSt12memory_order.exit

acqrel.i:                                         ; preds = %entry
  %8 = load i32, ptr %.atomictmp.i, align 4
  %9 = atomicrmw sub ptr %this1.i, i32 %8 acq_rel, align 4
  store i32 %9, ptr %atomic-temp.i, align 4
  br label %_ZNSt13__atomic_baseIiE9fetch_subEiSt12memory_order.exit

seqcst.i:                                         ; preds = %entry
  %10 = load i32, ptr %.atomictmp.i, align 4
  %11 = atomicrmw sub ptr %this1.i, i32 %10 seq_cst, align 4
  store i32 %11, ptr %atomic-temp.i, align 4
  br label %_ZNSt13__atomic_baseIiE9fetch_subEiSt12memory_order.exit

_ZNSt13__atomic_baseIiE9fetch_subEiSt12memory_order.exit: ; preds = %seqcst.i, %acqrel.i, %release.i, %acquire.i, %monotonic.i
  %12 = load i32, ptr %atomic-temp.i, align 4
  %cmp = icmp eq i32 %12, 1
  br i1 %cmp, label %if.then, label %if.end7

if.then:                                          ; preds = %_ZNSt13__atomic_baseIiE9fetch_subEiSt12memory_order.exit
  %vtable = load ptr, ptr %this1, align 8
  %vfn = getelementptr inbounds ptr, ptr %vtable, i64 8
  %13 = load ptr, ptr %vfn, align 8
  call void %13(ptr noundef nonnull align 8 dereferenceable(64) %this1)
  %pool_ = getelementptr inbounds %"class.facebook::velox::Buffer", ptr %this1, i32 0, i32 1
  %14 = load ptr, ptr %pool_, align 8
  %tobool = icmp ne ptr %14, null
  br i1 %tobool, label %if.then2, label %if.else

if.then2:                                         ; preds = %if.then
  %vtable3 = load ptr, ptr %this1, align 8
  %vfn4 = getelementptr inbounds ptr, ptr %vtable3, i64 6
  %15 = load ptr, ptr %vfn4, align 8
  call void %15(ptr noundef nonnull align 8 dereferenceable(64) %this1)
  br label %if.end

if.else:                                          ; preds = %if.then
  %isnull = icmp eq ptr %this1, null
  br i1 %isnull, label %delete.end, label %delete.notnull

delete.notnull:                                   ; preds = %if.else
  %vtable5 = load ptr, ptr %this1, align 8
  %vfn6 = getelementptr inbounds ptr, ptr %vtable5, i64 1
  %16 = load ptr, ptr %vfn6, align 8
  call void %16(ptr noundef nonnull align 8 dereferenceable(64) %this1) #16
  br label %delete.end

delete.end:                                       ; preds = %delete.notnull, %if.else
  br label %if.end

if.end:                                           ; preds = %delete.end, %if.then2
  br label %if.end7

if.end7:                                          ; preds = %if.end, %_ZNSt13__atomic_baseIiE9fetch_subEiSt12memory_order.exit
  ret void
}

; Function Attrs: mustprogress uwtable
define internal void @_ZN8facebook5veloxL21intrusive_ptr_releaseEPNS0_6BufferE(ptr noundef %buffer) #0 {
entry:
  %buffer.addr = alloca ptr, align 8
  store ptr %buffer, ptr %buffer.addr, align 8
  %0 = load ptr, ptr %buffer.addr, align 8
  call void @_ZN8facebook5velox6Buffer7releaseEv(ptr noundef nonnull align 8 dereferenceable(64) %0)
  ret void
}

; Function Attrs: mustprogress nounwind uwtable
define linkonce_odr void @_ZN5boost13intrusive_ptrIN8facebook5velox6BufferEED2Ev(ptr noundef nonnull align 8 dereferenceable(8) %this) unnamed_addr #2 comdat align 2 personality ptr @__gxx_personality_v0 {
entry:
  %this.addr = alloca ptr, align 8
  store ptr %this, ptr %this.addr, align 8
  %this1 = load ptr, ptr %this.addr, align 8
  %px = getelementptr inbounds %"class.boost::intrusive_ptr", ptr %this1, i32 0, i32 0
  %0 = load ptr, ptr %px, align 8
  %cmp = icmp ne ptr %0, null
  br i1 %cmp, label %if.then, label %if.end

if.then:                                          ; preds = %entry
  %px2 = getelementptr inbounds %"class.boost::intrusive_ptr", ptr %this1, i32 0, i32 0
  %1 = load ptr, ptr %px2, align 8
  invoke void @_ZN8facebook5veloxL21intrusive_ptr_releaseEPNS0_6BufferE(ptr noundef %1)
          to label %invoke.cont unwind label %terminate.lpad

invoke.cont:                                      ; preds = %if.then
  br label %if.end

if.end:                                           ; preds = %invoke.cont, %entry
  ret void

terminate.lpad:                                   ; preds = %if.then
  %2 = landingpad { ptr, i32 }
          catch ptr null
  %3 = extractvalue { ptr, i32 } %2, 0
  call void @__clang_call_terminate(ptr %3) #18
  unreachable
}

; Function Attrs: mustprogress nounwind uwtable
define internal void @_ZN8facebook5velox9functions12_GLOBAL__N_121FindFirstFunctionBase19StartIndexProcessorD2Ev(ptr noundef nonnull align 8 dereferenceable(16) %this) unnamed_addr #2 align 2 {
entry:
  %this.addr = alloca ptr, align 8
  store ptr %this, ptr %this.addr, align 8
  %this1 = load ptr, ptr %this.addr, align 8
  %adjustedSizes = getelementptr inbounds %"struct.facebook::velox::functions::(anonymous namespace)::FindFirstFunctionBase::StartIndexProcessor", ptr %this1, i32 0, i32 1
  call void @_ZN5boost13intrusive_ptrIN8facebook5velox6BufferEED2Ev(ptr noundef nonnull align 8 dereferenceable(8) %adjustedSizes) #16
  %adjustedOffsets = getelementptr inbounds %"struct.facebook::velox::functions::(anonymous namespace)::FindFirstFunctionBase::StartIndexProcessor", ptr %this1, i32 0, i32 0
  call void @_ZN5boost13intrusive_ptrIN8facebook5velox6BufferEED2Ev(ptr noundef nonnull align 8 dereferenceable(8) %adjustedOffsets) #16
  ret void
}